; ModuleID = '3/1690.c'
source_filename = "3/1690.c"
target datalayout = "e-m:e-p270:32:32-p271:32:32-p272:64:64-i64:64-f80:128-n8:16:32:64-S128"
target triple = "x86_64-pc-linux-gnu"

@.str = private unnamed_addr constant [6 x i8] c"%d %d\00", align 1
@.str.1 = private unnamed_addr constant [3 x i8] c"%d\00", align 1
@.str.2 = private unnamed_addr constant [4 x i8] c"yes\00", align 1
@.str.3 = private unnamed_addr constant [3 x i8] c"no\00", align 1

; Function Attrs: noinline nounwind uwtable
define dso_local i32 @main() #0 {
  %1 = alloca i32, align 4
  %2 = alloca i32, align 4
  %3 = alloca i32, align 4
  %4 = alloca i32, align 4
  %5 = alloca i32, align 4
  %6 = alloca i32, align 4
  %7 = alloca i32, align 4
  %8 = alloca [1000 x i32], align 16
  %9 = alloca [1000 x i32], align 16
  %10 = alloca [1000 x i32], align 16
  store i32 0, i32* %1, align 4
  store i32 0, i32* %5, align 4
  %11 = call i32 (i8*, ...) @__isoc99_scanf(i8* getelementptr inbounds ([6 x i8], [6 x i8]* @.str, i64 0, i64 0), i32* %6, i32* %7)
  store i32 0, i32* %2, align 4
  br label %12

12:                                               ; preds = %21, %0
  %13 = load i32, i32* %2, align 4
  %14 = load i32, i32* %6, align 4
  %15 = icmp slt i32 %13, %14
  br i1 %15, label %16, label %24

16:                                               ; preds = %12
  %17 = load i32, i32* %2, align 4
  %18 = sext i32 %17 to i64
  %19 = getelementptr inbounds [1000 x i32], [1000 x i32]* %8, i64 0, i64 %18
  %20 = call i32 (i8*, ...) @__isoc99_scanf(i8* getelementptr inbounds ([3 x i8], [3 x i8]* @.str.1, i64 0, i64 0), i32* %19)
  br label %21

21:                                               ; preds = %16
  %22 = load i32, i32* %2, align 4
  %23 = add nsw i32 %22, 1
  store i32 %23, i32* %2, align 4
  br label %12

24:                                               ; preds = %12
  store i32 0, i32* %2, align 4
  br label %25

25:                                               ; preds = %63, %24
  %26 = load i32, i32* %2, align 4
  %27 = load i32, i32* %6, align 4
  %28 = sub nsw i32 %27, 1
  %29 = icmp slt i32 %26, %28
  br i1 %29, label %30, label %66

30:                                               ; preds = %25
  %31 = load i32, i32* %2, align 4
  %32 = add nsw i32 %31, 1
  store i32 %32, i32* %3, align 4
  br label %33

33:                                               ; preds = %55, %30
  %34 = load i32, i32* %3, align 4
  %35 = load i32, i32* %6, align 4
  %36 = icmp slt i32 %34, %35
  br i1 %36, label %37, label %58

37:                                               ; preds = %33
  %38 = load i32, i32* %2, align 4
  %39 = sext i32 %38 to i64
  %40 = getelementptr inbounds [1000 x i32], [1000 x i32]* %8, i64 0, i64 %39
  %41 = load i32, i32* %40, align 4
  %42 = load i32, i32* %3, align 4
  %43 = sext i32 %42 to i64
  %44 = getelementptr inbounds [1000 x i32], [1000 x i32]* %8, i64 0, i64 %43
  %45 = load i32, i32* %44, align 4
  %46 = add nsw i32 %41, %45
  store i32 %46, i32* %4, align 4
  %47 = load i32, i32* %4, align 4
  %48 = load i32, i32* %7, align 4
  %49 = icmp eq i32 %47, %48
  br i1 %49, label %50, label %54

50:                                               ; preds = %37
  %51 = call i32 (i8*, ...) @printf(i8* getelementptr inbounds ([4 x i8], [4 x i8]* @.str.2, i64 0, i64 0))
  %52 = load i32, i32* %5, align 4
  %53 = add nsw i32 %52, 1
  store i32 %53, i32* %5, align 4
  br label %58

54:                                               ; preds = %37
  br label %55

55:                                               ; preds = %54
  %56 = load i32, i32* %3, align 4
  %57 = add nsw i32 %56, 1
  store i32 %57, i32* %3, align 4
  br label %33

58:                                               ; preds = %50, %33
  %59 = load i32, i32* %5, align 4
  %60 = icmp ne i32 %59, 0
  br i1 %60, label %61, label %62

61:                                               ; preds = %58
  br label %66

62:                                               ; preds = %58
  br label %63

63:                                               ; preds = %62
  %64 = load i32, i32* %2, align 4
  %65 = add nsw i32 %64, 1
  store i32 %65, i32* %2, align 4
  br label %25

66:                                               ; preds = %61, %25
  %67 = load i32, i32* %5, align 4
  %68 = icmp eq i32 %67, 0
  br i1 %68, label %69, label %71

69:                                               ; preds = %66
  %70 = call i32 (i8*, ...) @printf(i8* getelementptr inbounds ([3 x i8], [3 x i8]* @.str.3, i64 0, i64 0))
  br label %71

71:                                               ; preds = %69, %66
  ret i32 0
}

declare dso_local i32 @__isoc99_scanf(i8*, ...) #1

declare dso_local i32 @printf(i8*, ...) #1


!llvm.module.flags = !{!0}
!llvm.ident = !{!1}

!0 = !{i32 1, !"wchar_size", i32 4}
!1 = !{!"clang version 10.0.0-4ubuntu1 "}
